target datalayout = "e-m:e-p270:32:32-p271:32:32-p272:64:64-i64:64-i128:128-f80:128-n8:16:32:64-S128"
target triple = "x86_64-pc-linux-gnu"

%struct.FT_BBox_ = type { i64, i64, i64, i64 }
%struct.FT_Bitmap_ = type { i32, i32, i32, ptr, i16, i8, i8, ptr }
%struct.FT_Raster_Params_ = type { ptr, ptr, i32, ptr, ptr, ptr, ptr, ptr, %struct.FT_BBox_ }

; Function Attrs: nounwind uwtable
define i32 @FT_Outline_Get_Bitmap(ptr noundef %0, ptr noundef %1, ptr noundef %2) #0 {
  %4 = alloca i32, align 4
  %5 = alloca ptr, align 8
  %6 = alloca ptr, align 8
  %7 = alloca ptr, align 8
  %8 = alloca %struct.FT_Raster_Params_, align 8
  %9 = alloca i32, align 4
  store ptr %0, ptr %5, align 8, !tbaa !70
  store ptr %1, ptr %6, align 8, !tbaa !212
  store ptr %2, ptr %7, align 8, !tbaa !289
  call void @llvm.lifetime.start.p0(i64 96, ptr %8) #10
  %10 = load ptr, ptr %7, align 8, !tbaa !289
  %11 = icmp ne ptr %10, null
  br i1 %11, label %13, label %12

12:                                               ; preds = %3
  store i32 6, ptr %4, align 4
  store i32 1, ptr %9, align 4
  br label %42

13:                                               ; preds = %3
  %14 = load ptr, ptr %7, align 8, !tbaa !289
  %15 = getelementptr inbounds nuw %struct.FT_Raster_Params_, ptr %8, i32 0, i32 0
  store ptr %14, ptr %15, align 8, !tbaa !608
  %16 = getelementptr inbounds nuw %struct.FT_Raster_Params_, ptr %8, i32 0, i32 2
  store i32 0, ptr %16, align 8, !tbaa !602
  %17 = load ptr, ptr %7, align 8, !tbaa !289
  %18 = getelementptr inbounds nuw %struct.FT_Bitmap_, ptr %17, i32 0, i32 5
  %19 = load i8, ptr %18, align 2, !tbaa !297
  %20 = zext i8 %19 to i32
  %21 = icmp eq i32 %20, 2
  br i1 %21, label %34, label %22

22:                                               ; preds = %13
  %23 = load ptr, ptr %7, align 8, !tbaa !289
  %24 = getelementptr inbounds nuw %struct.FT_Bitmap_, ptr %23, i32 0, i32 5
  %25 = load i8, ptr %24, align 2, !tbaa !297
  %26 = zext i8 %25 to i32
  %27 = icmp eq i32 %26, 5
  br i1 %27, label %34, label %28

28:                                               ; preds = %22
  %29 = load ptr, ptr %7, align 8, !tbaa !289
  %30 = getelementptr inbounds nuw %struct.FT_Bitmap_, ptr %29, i32 0, i32 5
  %31 = load i8, ptr %30, align 2, !tbaa !297
  %32 = zext i8 %31 to i32
  %33 = icmp eq i32 %32, 6
  br i1 %33, label %34, label %38

34:                                               ; preds = %28, %22, %13
  %35 = getelementptr inbounds nuw %struct.FT_Raster_Params_, ptr %8, i32 0, i32 2
  %36 = load i32, ptr %35, align 8, !tbaa !602
  %37 = or i32 %36, 1
  store i32 %37, ptr %35, align 8, !tbaa !602
  br label %38

38:                                               ; preds = %34, %28
  %39 = load ptr, ptr %5, align 8, !tbaa !70
  %40 = load ptr, ptr %6, align 8, !tbaa !212
  %41 = call i32 @FT_Outline_Render(ptr noundef %39, ptr noundef %40, ptr noundef %8)
  store i32 %41, ptr %4, align 4
  store i32 1, ptr %9, align 4
  br label %42

42:                                               ; preds = %38, %12
  call void @llvm.lifetime.end.p0(i64 96, ptr %8) #10
  %43 = load i32, ptr %4, align 4
  ret i32 %43
}