; Function Attrs: nounwind uwtable
define i32 @FT_Outline_Get_Bitmap(ptr noundef %0, ptr noundef %1, ptr noundef %2) local_unnamed_addr #0 {
  %4 = alloca %struct.FT_Raster_Params_, align 8
  call void @llvm.lifetime.start.p0(i64 96, ptr nonnull %4) #34
  %.not = icmp eq ptr %2, null
  br i1 %.not, label %12, label %5

5:                                                ; preds = %3
  store ptr %2, ptr %4, align 8, !tbaa !500
  %6 = getelementptr inbounds nuw i8, ptr %4, i64 16
  store i32 0, ptr %6, align 8, !tbaa !494
  %7 = getelementptr inbounds nuw i8, ptr %2, i64 26
  %8 = load i8, ptr %7, align 2, !tbaa !264
  switch i8 %8, label %10 [
    i8 2, label %9
    i8 5, label %9
    i8 6, label %9
  ]

9:                                                ; preds = %5, %5, %5
  store i32 1, ptr %6, align 8, !tbaa !494
  br label %10

10:                                               ; preds = %5, %9
  %11 = call i32 @FT_Outline_Render(ptr noundef %0, ptr noundef %1, ptr noundef nonnull %4)
  br label %12

12:                                               ; preds = %3, %10
  %.0 = phi i32 [ %11, %10 ], [ 6, %3 ]
  call void @llvm.lifetime.end.p0(i64 96, ptr nonnull %4) #34
  ret i32 %.0
}